target datalayout = "e-m:e-p270:32:32-p271:32:32-p272:64:64-i64:64-i128:128-f80:128-n8:16:32:64-S128"
target triple = "x86_64-pc-linux-gnu"

%struct.cli_crt_t = type { ptr, [64 x i8], [64 x i8], [64 x i8], [20 x i8], [20 x i8], [20 x i8], i32, [64 x i8], ptr, ptr, ptr, i64, i64, i32, i32, i32, i32, i32, ptr, ptr }

; Function Attrs: nounwind uwtable
define internal i32 @cli_crt_init_fps(ptr noundef %0) #0 {
  %2 = alloca i32, align 4
  %3 = alloca ptr, align 8
  store ptr %0, ptr %3, align 8
  %4 = call ptr @BN_new()
  %5 = load ptr, ptr %3, align 8
  %6 = getelementptr inbounds %struct.cli_crt_t, ptr %5, i32 0, i32 9
  store ptr %4, ptr %6, align 8
  %7 = call ptr @BN_new()
  %8 = load ptr, ptr %3, align 8
  %9 = getelementptr inbounds %struct.cli_crt_t, ptr %8, i32 0, i32 10
  store ptr %7, ptr %9, align 8
  %10 = call ptr @BN_new()
  %11 = load ptr, ptr %3, align 8
  %12 = getelementptr inbounds %struct.cli_crt_t, ptr %11, i32 0, i32 11
  store ptr %10, ptr %12, align 8
  %13 = load ptr, ptr %3, align 8
  %14 = getelementptr inbounds %struct.cli_crt_t, ptr %13, i32 0, i32 9
  %15 = load ptr, ptr %14, align 8
  %16 = icmp ne ptr %15, null
  br i1 %16, label %17, label %27

17:                                               ; preds = %1
  %18 = load ptr, ptr %3, align 8
  %19 = getelementptr inbounds %struct.cli_crt_t, ptr %18, i32 0, i32 10
  %20 = load ptr, ptr %19, align 8
  %21 = icmp ne ptr %20, null
  br i1 %21, label %22, label %27

22:                                               ; preds = %17
  %23 = load ptr, ptr %3, align 8
  %24 = getelementptr inbounds %struct.cli_crt_t, ptr %23, i32 0, i32 11
  %25 = load ptr, ptr %24, align 8
  %26 = icmp ne ptr %25, null
  br i1 %26, label %43, label %27

27:                                               ; preds = %22, %17, %1
  %28 = load ptr, ptr %3, align 8
  %29 = getelementptr inbounds %struct.cli_crt_t, ptr %28, i32 0, i32 9
  %30 = load ptr, ptr %29, align 8
  call void @BN_free(ptr noundef %30)
  %31 = load ptr, ptr %3, align 8
  %32 = getelementptr inbounds %struct.cli_crt_t, ptr %31, i32 0, i32 10
  %33 = load ptr, ptr %32, align 8
  call void @BN_free(ptr noundef %33)
  %34 = load ptr, ptr %3, align 8
  %35 = getelementptr inbounds %struct.cli_crt_t, ptr %34, i32 0, i32 11
  %36 = load ptr, ptr %35, align 8
  call void @BN_free(ptr noundef %36)
  %37 = load ptr, ptr %3, align 8
  %38 = getelementptr inbounds %struct.cli_crt_t, ptr %37, i32 0, i32 9
  store ptr null, ptr %38, align 8
  %39 = load ptr, ptr %3, align 8
  %40 = getelementptr inbounds %struct.cli_crt_t, ptr %39, i32 0, i32 10
  store ptr null, ptr %40, align 8
  %41 = load ptr, ptr %3, align 8
  %42 = getelementptr inbounds %struct.cli_crt_t, ptr %41, i32 0, i32 11
  store ptr null, ptr %42, align 8
  store i32 -1, ptr %2, align 4
  br label %44

43:                                               ; preds = %22
  store i32 0, ptr %2, align 4
  br label %44

44:                                               ; preds = %43, %27
  %45 = load i32, ptr %2, align 4
  ret i32 %45
}

; Function Attrs: nounwind uwtable
define i32 @cli_crt_init(ptr noundef %0) #0 {
  %2 = alloca ptr, align 8
  store ptr %0, ptr %2, align 8
  %3 = load ptr, ptr %2, align 8
  call void @llvm.memset.p0.i64(ptr align 8 %3, i8 0, i64 408, i1 false)
  %4 = load ptr, ptr %2, align 8
  %5 = call i32 @cli_crt_init_fps(ptr noundef %4)
  ret i32 %5
}