; Function Attrs: nounwind uwtable
define noundef i32 @cli_crt_init(ptr nocapture noundef %0) local_unnamed_addr #0 {
  tail call void @llvm.memset.p0.i64(ptr noundef nonnull align 8 dereferenceable(408) %0, i8 0, i64 408, i1 false)
  %2 = tail call ptr @BN_new() #10
  %3 = getelementptr inbounds i8, ptr %0, i64 328
  store ptr %2, ptr %3, align 8
  %4 = tail call ptr @BN_new() #10
  %5 = getelementptr inbounds i8, ptr %0, i64 336
  store ptr %4, ptr %5, align 8
  %6 = tail call ptr @BN_new() #10
  %7 = getelementptr inbounds i8, ptr %0, i64 344
  store ptr %6, ptr %7, align 8
  %8 = load ptr, ptr %3, align 8
  %.not.i = icmp eq ptr %8, null
  br i1 %.not.i, label %11, label %9

9:                                                ; preds = %1
  %10 = load ptr, ptr %5, align 8
  %.not12.i = icmp eq ptr %10, null
  %.not13.i = icmp eq ptr %6, null
  %or.cond.i = select i1 %.not12.i, i1 true, i1 %.not13.i
  br i1 %or.cond.i, label %11, label %cli_crt_init_fps.exit

11:                                               ; preds = %9, %1
  tail call void @BN_free(ptr noundef %8) #10
  %12 = load ptr, ptr %5, align 8
  tail call void @BN_free(ptr noundef %12) #10
  %13 = load ptr, ptr %7, align 8
  tail call void @BN_free(ptr noundef %13) #10
  tail call void @llvm.memset.p0.i64(ptr noundef nonnull align 8 dereferenceable(24) %3, i8 0, i64 24, i1 false)
  br label %cli_crt_init_fps.exit

cli_crt_init_fps.exit:                            ; preds = %9, %11
  %.0.i = phi i32 [ -1, %11 ], [ 0, %9 ]
  ret i32 %.0.i
}